target datalayout = "e-m:e-p270:32:32-p271:32:32-p272:64:64-i64:64-i128:128-f80:128-n8:16:32:64-S128"
target triple = "x86_64-pc-linux-gnu"

%class.TenuredGeneration = type { %class.Generation, %class.MemRegion, ptr, ptr, i64, i64, i64, i64, ptr, ptr, ptr, ptr }
%class.Generation = type { ptr, ptr, %class.MemRegion, %class.VirtualSpace, ptr }
%class.VirtualSpace = type { ptr, ptr, ptr, ptr, i8, i8, ptr, ptr, ptr, ptr, ptr, ptr, i64, i64, i64 }
%class.MemRegion = type { ptr, i64 }
%class.SerialHeap = type { %class.CollectedHeap, ptr, ptr, ptr, ptr, ptr, ptr, ptr, ptr, ptr, ptr, ptr }
%class.CollectedHeap = type { ptr, ptr, i64, i64, %class.SoftRefPolicy, %class.MemRegion, i8, i64, i32, i32, i32, i32, ptr, ptr }
%class.SoftRefPolicy = type { i8, i8 }
%class.DefNewGeneration = type { %class.Generation, ptr, i32, %class.AgeTable, i64, %class.SpanSubjectToDiscoveryClosure, ptr, i8, %class.PromotionFailedInfo, %class.PreservedMarksSet, %class.Stack, i8, ptr, ptr, ptr, ptr, i64, i64, ptr, ptr, ptr, ptr, ptr, %"class.StringDedup::Requests" }
%class.AgeTable = type { [16 x i64], i8, [16 x ptr] }
%class.SpanSubjectToDiscoveryClosure = type { %class.BoolObjectClosure, %class.MemRegion }
%class.BoolObjectClosure = type { ptr }
%class.PromotionFailedInfo = type { %class.CopyFailedInfo.base, i64 }
%class.CopyFailedInfo.base = type <{ ptr, i64, i64, i64, i32 }>
%class.PreservedMarksSet = type { i8, i32, ptr }
%class.Stack = type { ptr, %class.StackBase, ptr, ptr }
%class.StackBase = type { i64, i64, i64, i64, i64, i64 }
%"class.StringDedup::Requests" = type <{ ptr, ptr, i64, i8, [7 x i8] }>
%class.ContiguousSpace = type { ptr, ptr, ptr }

; Function Attrs: mustprogress nounwind uwtable
define linkonce_odr hidden noundef i64 @_Z13pointer_deltaPVKvS0_m(ptr noundef %0, ptr noundef %1, i64 noundef %2) #1 comdat {
  %4 = alloca ptr, align 8
  %5 = alloca ptr, align 8
  %6 = alloca i64, align 8
  store ptr %0, ptr %4, align 8
  store ptr %1, ptr %5, align 8
  store i64 %2, ptr %6, align 8
  %7 = load ptr, ptr %4, align 8
  %8 = ptrtoint ptr %7 to i64
  %9 = load ptr, ptr %5, align 8
  %10 = ptrtoint ptr %9 to i64
  %11 = sub i64 %8, %10
  %12 = load i64, ptr %6, align 8
  %13 = udiv i64 %11, %12
  ret i64 %13
}

; Function Attrs: mustprogress nounwind uwtable
define linkonce_odr hidden noundef i64 @_Z13pointer_deltaPKP12HeapWordImplS2_(ptr noundef %0, ptr noundef %1) #1 comdat {
  %3 = alloca ptr, align 8
  %4 = alloca ptr, align 8
  store ptr %0, ptr %3, align 8
  store ptr %1, ptr %4, align 8
  %5 = load ptr, ptr %3, align 8
  %6 = load ptr, ptr %4, align 8
  %7 = call noundef i64 @_Z13pointer_deltaPVKvS0_m(ptr noundef %5, ptr noundef %6, i64 noundef 8)
  ret i64 %7
}

; Function Attrs: mustprogress nounwind uwtable
define linkonce_odr hidden void @_ZN9MemRegionC2EPP12HeapWordImplS2_(ptr noundef nonnull align 8 dereferenceable(16) %0, ptr noundef %1, ptr noundef %2) unnamed_addr #1 comdat align 2 {
  %4 = alloca ptr, align 8
  %5 = alloca ptr, align 8
  %6 = alloca ptr, align 8
  store ptr %0, ptr %4, align 8
  store ptr %1, ptr %5, align 8
  store ptr %2, ptr %6, align 8
  %7 = load ptr, ptr %4, align 8
  %8 = getelementptr inbounds %class.MemRegion, ptr %7, i32 0, i32 0
  %9 = load ptr, ptr %5, align 8
  store ptr %9, ptr %8, align 8
  %10 = getelementptr inbounds %class.MemRegion, ptr %7, i32 0, i32 1
  %11 = load ptr, ptr %6, align 8
  %12 = load ptr, ptr %5, align 8
  %13 = call noundef i64 @_Z13pointer_deltaPKP12HeapWordImplS2_(ptr noundef %11, ptr noundef %12)
  store i64 %13, ptr %10, align 8
  ret void
}

; Function Attrs: mustprogress nounwind uwtable
define linkonce_odr hidden noundef ptr @_ZNK15ContiguousSpace6bottomEv(ptr noundef nonnull align 8 dereferenceable(24) %0) #1 comdat align 2 {
  %2 = alloca ptr, align 8
  store ptr %0, ptr %2, align 8
  %3 = load ptr, ptr %2, align 8
  %4 = getelementptr inbounds %class.ContiguousSpace, ptr %3, i32 0, i32 0
  %5 = load ptr, ptr %4, align 8
  ret ptr %5
}

; Function Attrs: mustprogress nounwind uwtable
define linkonce_odr hidden noundef ptr @_ZNK9MemRegion3endEv(ptr noundef nonnull align 8 dereferenceable(16) %0) #1 comdat align 2 {
  %2 = alloca ptr, align 8
  store ptr %0, ptr %2, align 8
  %3 = load ptr, ptr %2, align 8
  %4 = getelementptr inbounds %class.MemRegion, ptr %3, i32 0, i32 0
  %5 = load ptr, ptr %4, align 8
  %6 = getelementptr inbounds %class.MemRegion, ptr %3, i32 0, i32 1
  %7 = load i64, ptr %6, align 8
  %8 = getelementptr inbounds ptr, ptr %5, i64 %7
  ret ptr %8
}

; Function Attrs: mustprogress nounwind uwtable
define linkonce_odr hidden { ptr, i64 } @_ZNK15ContiguousSpace11used_regionEv(ptr noundef nonnull align 8 dereferenceable(24) %0) #1 comdat align 2 {
  %2 = alloca %class.MemRegion, align 8
  %3 = alloca ptr, align 8
  store ptr %0, ptr %3, align 8
  %4 = load ptr, ptr %3, align 8
  %5 = call noundef ptr @_ZNK15ContiguousSpace6bottomEv(ptr noundef nonnull align 8 dereferenceable(24) %4)
  %6 = call noundef ptr @_ZNK15ContiguousSpace3topEv(ptr noundef nonnull align 8 dereferenceable(24) %4)
  call void @_ZN9MemRegionC2EPP12HeapWordImplS2_(ptr noundef nonnull align 8 dereferenceable(16) %2, ptr noundef %5, ptr noundef %6)
  %7 = load { ptr, i64 }, ptr %2, align 8
  ret { ptr, i64 } %7
}

; Function Attrs: mustprogress nounwind uwtable
define linkonce_odr hidden noundef zeroext i1 @_ZNK9MemRegion8containsEPKv(ptr noundef nonnull align 8 dereferenceable(16) %0, ptr noundef %1) #1 comdat align 2 {
  %3 = alloca ptr, align 8
  %4 = alloca ptr, align 8
  store ptr %0, ptr %3, align 8
  store ptr %1, ptr %4, align 8
  %5 = load ptr, ptr %3, align 8
  %6 = load ptr, ptr %4, align 8
  %7 = getelementptr inbounds %class.MemRegion, ptr %5, i32 0, i32 0
  %8 = load ptr, ptr %7, align 8
  %9 = icmp uge ptr %6, %8
  br i1 %9, label %10, label %14

10:                                               ; preds = %2
  %11 = load ptr, ptr %4, align 8
  %12 = call noundef ptr @_ZNK9MemRegion3endEv(ptr noundef nonnull align 8 dereferenceable(16) %5)
  %13 = icmp ult ptr %11, %12
  br label %14

14:                                               ; preds = %10, %2
  %15 = phi i1 [ false, %2 ], [ %13, %10 ]
  ret i1 %15
}

; Function Attrs: mustprogress nounwind uwtable
define linkonce_odr hidden noundef ptr @_ZNK15ContiguousSpace3topEv(ptr noundef nonnull align 8 dereferenceable(24) %0) #1 comdat align 2 {
  %2 = alloca ptr, align 8
  store ptr %0, ptr %2, align 8
  %3 = load ptr, ptr %2, align 8
  %4 = getelementptr inbounds %class.ContiguousSpace, ptr %3, i32 0, i32 2
  %5 = load ptr, ptr %4, align 8
  ret ptr %5
}

; Function Attrs: mustprogress nounwind uwtable
define linkonce_odr hidden noundef ptr @_ZNK17TenuredGeneration5spaceEv(ptr noundef nonnull align 8 dereferenceable(248) %0) #1 comdat align 2 {
  %2 = alloca ptr, align 8
  store ptr %0, ptr %2, align 8
  %3 = load ptr, ptr %2, align 8
  %4 = getelementptr inbounds %class.TenuredGeneration, ptr %3, i32 0, i32 8
  %5 = load ptr, ptr %4, align 8
  ret ptr %5
}

; Function Attrs: mustprogress nounwind uwtable
define linkonce_odr hidden noundef ptr @_ZNK16DefNewGeneration2toEv(ptr noundef nonnull align 8 dereferenceable(744) %0) #1 comdat align 2 {
  %2 = alloca ptr, align 8
  store ptr %0, ptr %2, align 8
  %3 = load ptr, ptr %2, align 8
  %4 = getelementptr inbounds %class.DefNewGeneration, ptr %3, i32 0, i32 20
  %5 = load ptr, ptr %4, align 8
  ret ptr %5
}

; Function Attrs: mustprogress nounwind uwtable
define linkonce_odr hidden noundef ptr @_ZNK16DefNewGeneration4fromEv(ptr noundef nonnull align 8 dereferenceable(744) %0) #1 comdat align 2 {
  %2 = alloca ptr, align 8
  store ptr %0, ptr %2, align 8
  %3 = load ptr, ptr %2, align 8
  %4 = getelementptr inbounds %class.DefNewGeneration, ptr %3, i32 0, i32 19
  %5 = load ptr, ptr %4, align 8
  ret ptr %5
}

; Function Attrs: mustprogress nounwind uwtable
define linkonce_odr hidden noundef zeroext i1 @_ZNK15ContiguousSpace5is_inEPKv(ptr noundef nonnull align 8 dereferenceable(24) %0, ptr noundef %1) #1 comdat align 2 {
  %3 = alloca ptr, align 8
  %4 = alloca ptr, align 8
  %5 = alloca %class.MemRegion, align 8
  store ptr %0, ptr %3, align 8
  store ptr %1, ptr %4, align 8
  %6 = load ptr, ptr %3, align 8
  %7 = call { ptr, i64 } @_ZNK15ContiguousSpace11used_regionEv(ptr noundef nonnull align 8 dereferenceable(24) %6)
  %8 = getelementptr inbounds { ptr, i64 }, ptr %5, i32 0, i32 0
  %9 = extractvalue { ptr, i64 } %7, 0
  store ptr %9, ptr %8, align 8
  %10 = getelementptr inbounds { ptr, i64 }, ptr %5, i32 0, i32 1
  %11 = extractvalue { ptr, i64 } %7, 1
  store i64 %11, ptr %10, align 8
  %12 = load ptr, ptr %4, align 8
  %13 = call noundef zeroext i1 @_ZNK9MemRegion8containsEPKv(ptr noundef nonnull align 8 dereferenceable(16) %5, ptr noundef %12)
  ret i1 %13
}

; Function Attrs: mustprogress nounwind uwtable
define linkonce_odr hidden noundef ptr @_ZNK16DefNewGeneration4edenEv(ptr noundef nonnull align 8 dereferenceable(744) %0) #1 comdat align 2 {
  %2 = alloca ptr, align 8
  store ptr %0, ptr %2, align 8
  %3 = load ptr, ptr %2, align 8
  %4 = getelementptr inbounds %class.DefNewGeneration, ptr %3, i32 0, i32 18
  %5 = load ptr, ptr %4, align 8
  ret ptr %5
}

; Function Attrs: mustprogress nounwind uwtable
define linkonce_odr hidden noundef zeroext i1 @_ZNK10Generation14is_in_reservedEPKv(ptr noundef nonnull align 8 dereferenceable(152) %0, ptr noundef %1) #1 comdat align 2 {
  %3 = alloca ptr, align 8
  %4 = alloca ptr, align 8
  store ptr %0, ptr %3, align 8
  store ptr %1, ptr %4, align 8
  %5 = load ptr, ptr %3, align 8
  %6 = getelementptr inbounds %class.Generation, ptr %5, i32 0, i32 2
  %7 = load ptr, ptr %4, align 8
  %8 = call noundef zeroext i1 @_ZNK9MemRegion8containsEPKv(ptr noundef nonnull align 8 dereferenceable(16) %6, ptr noundef %7)
  ret i1 %8
}

; Function Attrs: mustprogress nounwind uwtable
define hidden noundef zeroext i1 @_ZNK10SerialHeap12block_is_objEPKP12HeapWordImpl(ptr noundef nonnull align 8 dereferenceable(192) %0, ptr noundef %1) #1 align 2 {
  %3 = alloca i1, align 1
  %4 = alloca ptr, align 8
  %5 = alloca ptr, align 8
  store ptr %0, ptr %4, align 8
  store ptr %1, ptr %5, align 8
  %6 = load ptr, ptr %4, align 8
  %7 = getelementptr inbounds %class.SerialHeap, ptr %6, i32 0, i32 1
  %8 = load ptr, ptr %7, align 8
  %9 = load ptr, ptr %5, align 8
  %10 = call noundef zeroext i1 @_ZNK10Generation14is_in_reservedEPKv(ptr noundef nonnull align 8 dereferenceable(152) %8, ptr noundef %9)
  br i1 %10, label %11, label %31

11:                                               ; preds = %2
  %12 = getelementptr inbounds %class.SerialHeap, ptr %6, i32 0, i32 1
  %13 = load ptr, ptr %12, align 8
  %14 = call noundef ptr @_ZNK16DefNewGeneration4edenEv(ptr noundef nonnull align 8 dereferenceable(744) %13)
  %15 = load ptr, ptr %5, align 8
  %16 = call noundef zeroext i1 @_ZNK15ContiguousSpace5is_inEPKv(ptr noundef nonnull align 8 dereferenceable(24) %14, ptr noundef %15)
  br i1 %16, label %29, label %17

17:                                               ; preds = %11
  %18 = getelementptr inbounds %class.SerialHeap, ptr %6, i32 0, i32 1
  %19 = load ptr, ptr %18, align 8
  %20 = call noundef ptr @_ZNK16DefNewGeneration4fromEv(ptr noundef nonnull align 8 dereferenceable(744) %19)
  %21 = load ptr, ptr %5, align 8
  %22 = call noundef zeroext i1 @_ZNK15ContiguousSpace5is_inEPKv(ptr noundef nonnull align 8 dereferenceable(24) %20, ptr noundef %21)
  br i1 %22, label %29, label %23

23:                                               ; preds = %17
  %24 = getelementptr inbounds %class.SerialHeap, ptr %6, i32 0, i32 1
  %25 = load ptr, ptr %24, align 8
  %26 = call noundef ptr @_ZNK16DefNewGeneration2toEv(ptr noundef nonnull align 8 dereferenceable(744) %25)
  %27 = load ptr, ptr %5, align 8
  %28 = call noundef zeroext i1 @_ZNK15ContiguousSpace5is_inEPKv(ptr noundef nonnull align 8 dereferenceable(24) %26, ptr noundef %27)
  br label %29

29:                                               ; preds = %23, %17, %11
  %30 = phi i1 [ true, %17 ], [ true, %11 ], [ %28, %23 ]
  store i1 %30, ptr %3, align 1
  br label %38

31:                                               ; preds = %2
  %32 = load ptr, ptr %5, align 8
  %33 = getelementptr inbounds %class.SerialHeap, ptr %6, i32 0, i32 2
  %34 = load ptr, ptr %33, align 8
  %35 = call noundef ptr @_ZNK17TenuredGeneration5spaceEv(ptr noundef nonnull align 8 dereferenceable(248) %34)
  %36 = call noundef ptr @_ZNK15ContiguousSpace3topEv(ptr noundef nonnull align 8 dereferenceable(24) %35)
  %37 = icmp ult ptr %32, %36
  store i1 %37, ptr %3, align 1
  br label %38

38:                                               ; preds = %31, %29
  %39 = load i1, ptr %3, align 1
  ret i1 %39
}