; Function Attrs: mustprogress nofree norecurse nosync nounwind willreturn memory(read, inaccessiblemem: none) uwtable
define hidden noundef zeroext i1 @_ZNK10SerialHeap12block_is_objEPKP12HeapWordImpl(ptr nocapture noundef nonnull readonly align 8 dereferenceable(192) %0, ptr noundef readnone %1) local_unnamed_addr #7 align 2 {
  %3 = getelementptr inbounds i8, ptr %0, i64 104
  %4 = load ptr, ptr %3, align 8
  %5 = getelementptr inbounds i8, ptr %4, i64 16
  %6 = load ptr, ptr %5, align 8
  %.not.i.i = icmp ule ptr %6, %1
  %7 = getelementptr inbounds i8, ptr %4, i64 24
  %8 = load i64, ptr %7, align 8
  %9 = getelementptr inbounds ptr, ptr %6, i64 %8
  %10 = icmp ugt ptr %9, %1
  %11 = select i1 %.not.i.i, i1 %10, i1 false
  br i1 %11, label %12, label %51

12:                                               ; preds = %2
  %13 = getelementptr inbounds i8, ptr %4, i64 672
  %14 = load ptr, ptr %13, align 8
  %15 = load ptr, ptr %14, align 8
  %16 = getelementptr inbounds i8, ptr %14, i64 16
  %17 = load ptr, ptr %16, align 8
  %18 = ptrtoint ptr %17 to i64
  %19 = ptrtoint ptr %15 to i64
  %20 = sub i64 %18, %19
  %21 = lshr i64 %20, 3
  %.not.i.i7 = icmp ule ptr %15, %1
  %22 = getelementptr inbounds ptr, ptr %15, i64 %21
  %23 = icmp ugt ptr %22, %1
  %24 = select i1 %.not.i.i7, i1 %23, i1 false
  br i1 %24, label %59, label %25

25:                                               ; preds = %12
  %26 = getelementptr inbounds i8, ptr %4, i64 680
  %27 = load ptr, ptr %26, align 8
  %28 = load ptr, ptr %27, align 8
  %29 = getelementptr inbounds i8, ptr %27, i64 16
  %30 = load ptr, ptr %29, align 8
  %31 = ptrtoint ptr %30 to i64
  %32 = ptrtoint ptr %28 to i64
  %33 = sub i64 %31, %32
  %34 = lshr i64 %33, 3
  %.not.i.i8 = icmp ule ptr %28, %1
  %35 = getelementptr inbounds ptr, ptr %28, i64 %34
  %36 = icmp ugt ptr %35, %1
  %37 = select i1 %.not.i.i8, i1 %36, i1 false
  br i1 %37, label %59, label %38

38:                                               ; preds = %25
  %39 = getelementptr inbounds i8, ptr %4, i64 688
  %40 = load ptr, ptr %39, align 8
  %41 = load ptr, ptr %40, align 8
  %42 = getelementptr inbounds i8, ptr %40, i64 16
  %43 = load ptr, ptr %42, align 8
  %44 = ptrtoint ptr %43 to i64
  %45 = ptrtoint ptr %41 to i64
  %46 = sub i64 %44, %45
  %47 = lshr i64 %46, 3
  %.not.i.i9 = icmp ule ptr %41, %1
  %48 = getelementptr inbounds ptr, ptr %41, i64 %47
  %49 = icmp ugt ptr %48, %1
  %50 = select i1 %.not.i.i9, i1 %49, i1 false
  br label %59

51:                                               ; preds = %2
  %52 = getelementptr inbounds i8, ptr %0, i64 112
  %53 = load ptr, ptr %52, align 8
  %54 = getelementptr inbounds i8, ptr %53, i64 216
  %55 = load ptr, ptr %54, align 8
  %56 = getelementptr inbounds i8, ptr %55, i64 16
  %57 = load ptr, ptr %56, align 8
  %58 = icmp ugt ptr %57, %1
  br label %59

59:                                               ; preds = %12, %25, %38, %51
  %.0 = phi i1 [ %58, %51 ], [ true, %25 ], [ true, %12 ], [ %50, %38 ]
  ret i1 %.0
}